; Function Attrs: mustprogress nounwind uwtable
define internal void @_ZN12_GLOBAL__N_118NoStoreFuncVisitor23maybeEmitNoteForCXXThisERN5clang4ento22PathSensitiveBugReportERKNS2_18CXXConstructorCallEPKNS2_12ExplodedNodeE(ptr dead_on_unwind noalias writable writeonly sret(%"class.std::shared_ptr.747") align 8 captures(none) %0, ptr noundef nonnull readonly align 8 captures(none) dereferenceable(632) %1, ptr nonnull readnone align 8 captures(none) %2, ptr noundef nonnull align 8 dereferenceable(72) %3, ptr noundef readonly captures(none) %4) unnamed_addr #0 align 2 {
  %6 = alloca %"class.clang::ento::SVal", align 8
  %7 = alloca %"class.llvm::SmallVector.1759", align 8
  %8 = tail call { ptr, i8 } @_ZNK5clang4ento21AnyCXXConstructorCall13getCXXThisValEv(ptr noundef nonnull align 8 dereferenceable(72) %3) #22
  %.fca.0.extract = extractvalue { ptr, i8 } %8, 0
  %.fca.1.extract = extractvalue { ptr, i8 } %8, 1
  store ptr %.fca.0.extract, ptr %6, align 8
  %.sroa.2.0..sroa_idx = getelementptr inbounds nuw i8, ptr %6, i64 8
  store i8 %.fca.1.extract, ptr %.sroa.2.0..sroa_idx, align 8
  %9 = call noundef ptr @_ZNK5clang4ento4SVal11getAsRegionEv(ptr noundef nonnull align 8 dereferenceable(9) %6) #22
  %10 = getelementptr inbounds nuw i8, ptr %1, i64 600
  %11 = load ptr, ptr %10, align 8
  %12 = load ptr, ptr %11, align 8
  %13 = getelementptr inbounds nuw i8, ptr %12, i64 32
  %14 = load ptr, ptr %13, align 8
  %15 = call noundef zeroext i1 %14(ptr noundef nonnull align 8 dereferenceable(56) %11, ptr noundef %9) #22
  br i1 %15, label %16, label %30

16:                                               ; preds = %5
  %17 = load ptr, ptr %3, align 8
  %18 = getelementptr inbounds nuw i8, ptr %17, i64 48
  %19 = load ptr, ptr %18, align 8
  %20 = call noundef ptr %19(ptr noundef nonnull align 8 dereferenceable(72) %3) #22
  %21 = getelementptr inbounds nuw i8, ptr %20, i64 28
  %22 = load i32, ptr %21, align 4
  %23 = and i32 %22, 512
  %.not = icmp eq i32 %23, 0
  br i1 %.not, label %24, label %30

24:                                               ; preds = %16
  %25 = getelementptr inbounds nuw i8, ptr %7, i64 16
  call void @_ZN4llvm15SmallVectorBaseIjEC2EPvm(ptr noundef nonnull align 8 dereferenceable(56) %7, ptr noundef nonnull %25, i64 noundef 5) #22
  call fastcc void @_ZN12_GLOBAL__N_118NoStoreFuncVisitor13maybeEmitNoteERN5clang4ento22PathSensitiveBugReportERKNS2_9CallEventEPKNS2_12ExplodedNodeERKN4llvm11SmallVectorIPKNS2_9MemRegionELj5EEESF_NSB_9StringRefEbj(ptr dead_on_unwind noalias writable align 8 %0, ptr noundef nonnull align 8 dereferenceable(632) %1, ptr noundef %4, ptr noundef nonnull align 8 dereferenceable(56) %7, ptr noundef %9, ptr nonnull @.str.71, i64 4, i1 noundef zeroext false, i32 noundef 1)
  %26 = call noundef i64 @_ZNK4llvm15SmallVectorBaseIjE4sizeEv(ptr noundef nonnull align 8 dereferenceable(56) %7) #22
  %27 = load ptr, ptr %7, align 8
  %28 = icmp eq ptr %27, %25
  br i1 %28, label %_ZN4llvm11SmallVectorIPKN5clang4ento9MemRegionELj5EED2Ev.exit, label %29

29:                                               ; preds = %24
  call void @free(ptr noundef %27) #22
  br label %_ZN4llvm11SmallVectorIPKN5clang4ento9MemRegionELj5EED2Ev.exit

30:                                               ; preds = %16, %5
  call void @llvm.memset.p0.i64(ptr noundef nonnull align 8 dereferenceable(16) %0, i8 0, i64 16, i1 false)
  br label %_ZN4llvm11SmallVectorIPKN5clang4ento9MemRegionELj5EED2Ev.exit

_ZN4llvm11SmallVectorIPKN5clang4ento9MemRegionELj5EED2Ev.exit: ; preds = %29, %24, %30
  ret void
}